target datalayout = "e-m:e-p270:32:32-p271:32:32-p272:64:64-i64:64-i128:128-f80:128-n8:16:32:64-S128"
target triple = "x86_64-pc-linux-gnu"

%struct._zend_executor_globals = type { %struct._zval_struct, %struct._zval_struct, [32 x ptr], ptr, ptr, %struct._zend_array, %struct._zend_array, ptr, i32, i32, ptr, ptr, ptr, ptr, ptr, ptr, i64, ptr, ptr, i32, i32, i64, i32, i32, i32, i8, i8, %struct.zend_atomic_bool_s, %struct.zend_atomic_bool_s, ptr, i64, ptr, ptr, %struct._zend_array, %struct._zend_array, i32, i8, %struct._zval_struct, %struct._zval_struct, %struct._zend_stack, %struct._zend_stack, %struct._zend_stack, ptr, i32, i32, i64, ptr, ptr, ptr, %struct._zend_objects_store, ptr, ptr, ptr, [3 x %struct._zend_op], ptr, i8, i8, i64, i32, i32, ptr, [16 x %struct._HashTableIterator], ptr, %union._zend_function, %struct._zend_op, %struct._zend_array, i64, %struct.zend_get_gc_buffer, ptr, ptr, ptr, i64, i8, i32, ptr, ptr, i64, %struct._zend_call_stack, i64, i64, [6 x ptr] }
%struct.zend_atomic_bool_s = type { i8 }
%struct._zval_struct = type { %union._zend_value, %union.anon.0, %union.anon.3 }
%union._zend_value = type { i64 }
%union.anon.0 = type { i32 }
%union.anon.3 = type { i32 }
%struct._zend_stack = type { i32, i32, i32, ptr }
%struct._zend_objects_store = type { ptr, i32, i32, i32 }
%struct._HashTableIterator = type { ptr, i32, i32 }
%union._zend_function = type { %struct._zend_op_array }
%struct._zend_op_array = type { i8, [3 x i8], i32, ptr, ptr, ptr, i32, i32, ptr, ptr, ptr, ptr, i32, i32, i32, i32, ptr, ptr, ptr, ptr, ptr, i32, i32, ptr, ptr, ptr, i32, i32, i32, i32, ptr, ptr, [6 x ptr] }
%struct._zend_op = type { ptr, %union._znode_op, %union._znode_op, %union._znode_op, i32, i32, i8, i8, i8, i8 }
%union._znode_op = type { i32 }
%struct._zend_array = type { %struct._zend_refcounted_h, %union.anon.5, i32, %union.anon.7, i32, i32, i32, i32, i64, ptr }
%struct._zend_refcounted_h = type { i32, %union.anon }
%union.anon = type { i32 }
%union.anon.5 = type { i32 }
%union.anon.7 = type { ptr }
%struct.zend_get_gc_buffer = type { ptr, ptr, ptr }
%struct._zend_call_stack = type { ptr, i64 }
%struct._zend_object = type { %struct._zend_refcounted_h, i32, ptr, ptr, ptr, [1 x %struct._zval_struct] }
%struct._zend_class_entry = type { i8, ptr, %union.anon.4, i32, i32, i32, i32, ptr, ptr, ptr, %struct._zend_array, %struct._zend_array, %struct._zend_array, ptr, ptr, ptr, ptr, ptr, ptr, ptr, ptr, ptr, ptr, ptr, ptr, ptr, ptr, ptr, ptr, ptr, ptr, ptr, %union.anon.8, ptr, ptr, ptr, ptr, i32, i32, %union.anon.9, ptr, ptr, ptr, ptr, i32, ptr, ptr, %union.anon.10 }
%union.anon.4 = type { ptr }
%union.anon.8 = type { ptr }
%union.anon.9 = type { ptr }
%union.anon.10 = type { %struct.anon.11 }
%struct.anon.11 = type { ptr, i32, i32 }
%struct._zend_string = type { %struct._zend_refcounted_h, i64, i64, [1 x i8] }

@executor_globals = external global %struct._zend_executor_globals, align 8
@.str.15 = private unnamed_addr constant [51 x i8] c"Method %s::__toString() must return a string value\00", align 1

; Function Attrs: nounwind uwtable
define i32 @zend_std_cast_object_tostring(ptr noundef %0, ptr noundef %1, i32 noundef %2) #0 {
  %4 = alloca ptr, align 8
  %5 = alloca ptr, align 8
  %6 = alloca ptr, align 8
  %7 = alloca i32, align 4
  %8 = alloca ptr, align 8
  %9 = alloca ptr, align 8
  %10 = alloca ptr, align 8
  %11 = alloca ptr, align 8
  %12 = alloca ptr, align 8
  %13 = alloca ptr, align 8
  %14 = alloca ptr, align 8
  %15 = alloca ptr, align 8
  %16 = alloca i32, align 4
  %17 = alloca ptr, align 8
  %18 = alloca ptr, align 8
  %19 = alloca i32, align 4
  %20 = alloca ptr, align 8
  %21 = alloca %struct._zval_struct, align 8
  %22 = alloca ptr, align 8
  %23 = alloca ptr, align 8
  %24 = alloca ptr, align 8
  %25 = alloca i32, align 4
  store ptr %0, ptr %17, align 8
  store ptr %1, ptr %18, align 8
  store i32 %2, ptr %19, align 4
  %26 = load i32, ptr %19, align 4
  switch i32 %26, label %121 [
    i32 6, label %27
    i32 18, label %116
  ]

27:                                               ; preds = %3
  %28 = load ptr, ptr %17, align 8
  %29 = getelementptr inbounds %struct._zend_object, ptr %28, i32 0, i32 2
  %30 = load ptr, ptr %29, align 8
  store ptr %30, ptr %20, align 8
  %31 = load ptr, ptr %20, align 8
  %32 = getelementptr inbounds %struct._zend_class_entry, ptr %31, i32 0, i32 25
  %33 = load ptr, ptr %32, align 8
  %34 = icmp ne ptr %33, null
  br i1 %34, label %35, label %115

35:                                               ; preds = %27
  %36 = load ptr, ptr %17, align 8
  %37 = getelementptr inbounds %struct._zend_object, ptr %36, i32 0, i32 0
  store ptr %37, ptr %11, align 8
  %38 = load ptr, ptr %11, align 8
  %39 = load i32, ptr %38, align 4
  %40 = add i32 %39, 1
  store i32 %40, ptr %38, align 4
  %41 = load ptr, ptr %20, align 8
  %42 = getelementptr inbounds %struct._zend_class_entry, ptr %41, i32 0, i32 25
  %43 = load ptr, ptr %42, align 8
  %44 = load ptr, ptr %17, align 8
  store ptr %43, ptr %12, align 8
  store ptr %44, ptr %13, align 8
  store ptr %21, ptr %14, align 8
  %45 = load ptr, ptr %12, align 8
  %46 = load ptr, ptr %13, align 8
  %47 = load ptr, ptr %14, align 8
  store ptr %45, ptr %4, align 8
  store ptr %46, ptr %5, align 8
  store ptr %47, ptr %6, align 8
  store i32 0, ptr %7, align 4
  store ptr null, ptr %8, align 8
  %48 = load ptr, ptr %4, align 8
  %49 = load ptr, ptr %5, align 8
  %50 = load ptr, ptr %5, align 8
  %51 = getelementptr inbounds %struct._zend_object, ptr %50, i32 0, i32 2
  %52 = load ptr, ptr %51, align 8
  %53 = load ptr, ptr %6, align 8
  %54 = load i32, ptr %7, align 4
  %55 = load ptr, ptr %8, align 8
  call void @zend_call_known_function(ptr noundef %48, ptr noundef %49, ptr noundef %52, ptr noundef %53, i32 noundef %54, ptr noundef %55, ptr noundef null) #10
  %56 = load ptr, ptr %17, align 8
  store ptr %56, ptr %10, align 8
  %57 = load ptr, ptr %10, align 8
  store ptr %57, ptr %9, align 8
  %58 = load ptr, ptr %9, align 8
  %59 = load i32, ptr %58, align 4
  %60 = icmp ugt i32 %59, 0
  call void @llvm.assume(i1 %60)
  %61 = load ptr, ptr %9, align 8
  %62 = load i32, ptr %61, align 4
  %63 = add i32 %62, -1
  store i32 %63, ptr %61, align 4
  %64 = icmp eq i32 %63, 0
  br i1 %64, label %65, label %67

65:                                               ; preds = %35
  %66 = load ptr, ptr %10, align 8
  call void @zend_objects_store_del(ptr noundef %66) #10
  br label %76

67:                                               ; preds = %35
  %68 = load ptr, ptr %10, align 8
  %69 = getelementptr inbounds %struct._zend_refcounted_h, ptr %68, i32 0, i32 1
  %70 = load i32, ptr %69, align 4
  %71 = and i32 %70, -1008
  %72 = icmp eq i32 %71, 0
  br i1 %72, label %73, label %75

73:                                               ; preds = %67
  %74 = load ptr, ptr %10, align 8
  call void @gc_possible_root(ptr noundef %74) #10
  br label %75

75:                                               ; preds = %73, %67
  br label %76

76:                                               ; preds = %75, %65
  store ptr %21, ptr %15, align 8
  %77 = load ptr, ptr %15, align 8
  %78 = getelementptr inbounds %struct._zval_struct, ptr %77, i32 0, i32 1
  %79 = load i8, ptr %78, align 8
  %80 = zext i8 %79 to i32
  %81 = icmp eq i32 %80, 6
  %82 = xor i1 %81, true
  %83 = xor i1 %82, true
  %84 = zext i1 %83 to i32
  %85 = sext i32 %84 to i64
  %86 = icmp ne i64 %85, 0
  br i1 %86, label %87, label %105

87:                                               ; preds = %76
  br label %88

88:                                               ; preds = %87
  %89 = load ptr, ptr %18, align 8
  store ptr %89, ptr %22, align 8
  store ptr %21, ptr %23, align 8
  %90 = load ptr, ptr %23, align 8
  %91 = getelementptr inbounds %struct._zval_struct, ptr %90, i32 0, i32 0
  %92 = load ptr, ptr %91, align 8
  store ptr %92, ptr %24, align 8
  %93 = load ptr, ptr %23, align 8
  %94 = getelementptr inbounds %struct._zval_struct, ptr %93, i32 0, i32 1
  %95 = load i32, ptr %94, align 8
  store i32 %95, ptr %25, align 4
  br label %96

96:                                               ; preds = %88
  %97 = load ptr, ptr %24, align 8
  %98 = load ptr, ptr %22, align 8
  %99 = getelementptr inbounds %struct._zval_struct, ptr %98, i32 0, i32 0
  store ptr %97, ptr %99, align 8
  %100 = load i32, ptr %25, align 4
  %101 = load ptr, ptr %22, align 8
  %102 = getelementptr inbounds %struct._zval_struct, ptr %101, i32 0, i32 1
  store i32 %100, ptr %102, align 8
  br label %103

103:                                              ; preds = %96
  br label %104

104:                                              ; preds = %103
  store i32 0, ptr %16, align 4
  br label %122

105:                                              ; preds = %76
  call void @zval_ptr_dtor(ptr noundef %21)
  %106 = load ptr, ptr getelementptr inbounds (%struct._zend_executor_globals, ptr @executor_globals, i32 0, i32 50), align 8
  %107 = icmp ne ptr %106, null
  br i1 %107, label %114, label %108

108:                                              ; preds = %105
  %109 = load ptr, ptr %20, align 8
  %110 = getelementptr inbounds %struct._zend_class_entry, ptr %109, i32 0, i32 1
  %111 = load ptr, ptr %110, align 8
  %112 = getelementptr inbounds %struct._zend_string, ptr %111, i32 0, i32 3
  %113 = getelementptr inbounds [1 x i8], ptr %112, i64 0, i64 0
  call void (ptr, ptr, ...) @zend_throw_error(ptr noundef null, ptr noundef @.str.15, ptr noundef %113)
  br label %114

114:                                              ; preds = %108, %105
  br label %115

115:                                              ; preds = %114, %27
  store i32 -1, ptr %16, align 4
  br label %122

116:                                              ; preds = %3
  br label %117

117:                                              ; preds = %116
  %118 = load ptr, ptr %18, align 8
  %119 = getelementptr inbounds %struct._zval_struct, ptr %118, i32 0, i32 1
  store i32 3, ptr %119, align 8
  br label %120

120:                                              ; preds = %117
  store i32 0, ptr %16, align 4
  br label %122

121:                                              ; preds = %3
  store i32 -1, ptr %16, align 4
  br label %122

122:                                              ; preds = %121, %120, %115, %104
  %123 = load i32, ptr %16, align 4
  ret i32 %123
}