; Function Attrs: nounwind uwtable
define noundef i32 @zend_std_cast_object_tostring(ptr noundef %0, ptr nocapture noundef writeonly %1, i32 noundef %2) #0 {
  %4 = alloca %struct._zval_struct, align 8
  switch i32 %2, label %41 [
    i32 6, label %5
    i32 18, label %39
  ]

5:                                                ; preds = %3
  %6 = getelementptr inbounds i8, ptr %0, i64 16
  %7 = load ptr, ptr %6, align 8
  %8 = getelementptr inbounds i8, ptr %7, i64 328
  %9 = load ptr, ptr %8, align 8
  %.not = icmp eq ptr %9, null
  br i1 %.not, label %41, label %10

10:                                               ; preds = %5
  %11 = load i32, ptr %0, align 4
  %12 = add i32 %11, 1
  store i32 %12, ptr %0, align 4
  %13 = load ptr, ptr %8, align 8
  call void @zend_call_known_function(ptr noundef %13, ptr noundef nonnull %0, ptr noundef nonnull %7, ptr noundef nonnull %4, i32 noundef 0, ptr noundef null, ptr noundef null) #15
  %14 = load i32, ptr %0, align 4
  %15 = icmp ne i32 %14, 0
  call void @llvm.assume(i1 %15)
  %16 = add i32 %14, -1
  store i32 %16, ptr %0, align 4
  %17 = icmp eq i32 %16, 0
  br i1 %17, label %18, label %19

18:                                               ; preds = %10
  call void @zend_objects_store_del(ptr noundef nonnull %0) #15
  br label %25

19:                                               ; preds = %10
  %20 = getelementptr inbounds i8, ptr %0, i64 4
  %21 = load i32, ptr %20, align 4
  %22 = and i32 %21, -1008
  %23 = icmp eq i32 %22, 0
  br i1 %23, label %24, label %25

24:                                               ; preds = %19
  call void @gc_possible_root(ptr noundef nonnull %0) #15
  br label %25

25:                                               ; preds = %19, %24, %18
  %26 = getelementptr inbounds i8, ptr %4, i64 8
  %27 = load i8, ptr %26, align 8
  %28 = icmp eq i8 %27, 6
  br i1 %28, label %29, label %33

29:                                               ; preds = %25
  %30 = load ptr, ptr %4, align 8
  %31 = load i32, ptr %26, align 8
  store ptr %30, ptr %1, align 8
  %32 = getelementptr inbounds i8, ptr %1, i64 8
  store i32 %31, ptr %32, align 8
  br label %41

33:                                               ; preds = %25
  call void @zval_ptr_dtor(ptr noundef nonnull %4) #15
  %34 = load ptr, ptr getelementptr inbounds (%struct._zend_executor_globals, ptr @executor_globals, i64 0, i32 50), align 8
  %.not33 = icmp eq ptr %34, null
  br i1 %.not33, label %35, label %41

35:                                               ; preds = %33
  %36 = getelementptr inbounds i8, ptr %7, i64 8
  %37 = load ptr, ptr %36, align 8
  %38 = getelementptr inbounds i8, ptr %37, i64 24
  call void (ptr, ptr, ...) @zend_throw_error(ptr noundef null, ptr noundef nonnull @.str.15, ptr noundef nonnull %38) #15
  br label %41

39:                                               ; preds = %3
  %40 = getelementptr inbounds i8, ptr %1, i64 8
  store i32 3, ptr %40, align 8
  br label %41

41:                                               ; preds = %3, %5, %35, %33, %39, %29
  %.0 = phi i32 [ 0, %39 ], [ 0, %29 ], [ -1, %33 ], [ -1, %35 ], [ -1, %5 ], [ -1, %3 ]
  ret i32 %.0
}